target datalayout = "e-m:e-p270:32:32-p271:32:32-p272:64:64-i64:64-i128:128-f80:128-n8:16:32:64-S128"
target triple = "x86_64-pc-linux-gnu"

%struct.__va_list_tag = type { i32, i32, ptr, ptr }

@easysrc_decl = dso_local global ptr null, align 8
@easysrc_data = dso_local global ptr null, align 8
@easysrc_code = dso_local global ptr null, align 8
@easysrc_toohard = dso_local global ptr null, align 8
@easysrc_clean = dso_local global ptr null, align 8

; Function Attrs: nounwind uwtable
define internal void @easysrc_free() #0 {
  %1 = load ptr, ptr @easysrc_decl, align 8, !tbaa !13
  call void @slist_wc_free_all(ptr noundef %1)
  store ptr null, ptr @easysrc_decl, align 8, !tbaa !13
  %2 = load ptr, ptr @easysrc_data, align 8, !tbaa !13
  call void @slist_wc_free_all(ptr noundef %2)
  store ptr null, ptr @easysrc_data, align 8, !tbaa !13
  %3 = load ptr, ptr @easysrc_code, align 8, !tbaa !13
  call void @slist_wc_free_all(ptr noundef %3)
  store ptr null, ptr @easysrc_code, align 8, !tbaa !13
  %4 = load ptr, ptr @easysrc_toohard, align 8, !tbaa !13
  call void @slist_wc_free_all(ptr noundef %4)
  store ptr null, ptr @easysrc_toohard, align 8, !tbaa !13
  %5 = load ptr, ptr @easysrc_clean, align 8, !tbaa !13
  call void @slist_wc_free_all(ptr noundef %5)
  store ptr null, ptr @easysrc_clean, align 8, !tbaa !13
  ret void
}

; Function Attrs: nounwind uwtable
define dso_local i32 @easysrc_add(ptr noundef %0, ptr noundef %1) #0 {
  %3 = alloca ptr, align 8
  %4 = alloca ptr, align 8
  %5 = alloca i32, align 4
  %6 = alloca ptr, align 8
  store ptr %0, ptr %3, align 8, !tbaa !4
  store ptr %1, ptr %4, align 8, !tbaa !9
  call void @llvm.lifetime.start.p0(i64 4, ptr %5) #5
  store i32 0, ptr %5, align 4, !tbaa !11
  call void @llvm.lifetime.start.p0(i64 8, ptr %6) #5
  %7 = load ptr, ptr %3, align 8, !tbaa !4
  %8 = load ptr, ptr %7, align 8, !tbaa !13
  %9 = load ptr, ptr %4, align 8, !tbaa !9
  %10 = call ptr @slist_wc_append(ptr noundef %8, ptr noundef %9)
  store ptr %10, ptr %6, align 8, !tbaa !13
  %11 = load ptr, ptr %6, align 8, !tbaa !13
  %12 = icmp ne ptr %11, null
  br i1 %12, label %14, label %13

13:                                               ; preds = %2
  call void @easysrc_free()
  store i32 27, ptr %5, align 4, !tbaa !11
  br label %17

14:                                               ; preds = %2
  %15 = load ptr, ptr %6, align 8, !tbaa !13
  %16 = load ptr, ptr %3, align 8, !tbaa !4
  store ptr %15, ptr %16, align 8, !tbaa !13
  br label %17

17:                                               ; preds = %14, %13
  %18 = load i32, ptr %5, align 4, !tbaa !11
  call void @llvm.lifetime.end.p0(i64 8, ptr %6) #5
  call void @llvm.lifetime.end.p0(i64 4, ptr %5) #5
  ret i32 %18
}

; Function Attrs: nounwind uwtable
define dso_local i32 @easysrc_addf(ptr noundef %0, ptr noundef %1, ...) #0 {
  %3 = alloca ptr, align 8
  %4 = alloca ptr, align 8
  %5 = alloca i32, align 4
  %6 = alloca ptr, align 8
  %7 = alloca [1 x %struct.__va_list_tag], align 16
  store ptr %0, ptr %3, align 8, !tbaa !4
  store ptr %1, ptr %4, align 8, !tbaa !9
  call void @llvm.lifetime.start.p0(i64 4, ptr %5) #5
  call void @llvm.lifetime.start.p0(i64 8, ptr %6) #5
  call void @llvm.lifetime.start.p0(i64 24, ptr %7) #5
  %8 = getelementptr inbounds [1 x %struct.__va_list_tag], ptr %7, i64 0, i64 0
  call void @llvm.va_start.p0(ptr %8)
  %9 = load ptr, ptr %4, align 8, !tbaa !9
  %10 = getelementptr inbounds [1 x %struct.__va_list_tag], ptr %7, i64 0, i64 0
  %11 = call ptr @curl_mvaprintf(ptr noundef %9, ptr noundef %10)
  store ptr %11, ptr %6, align 8, !tbaa !9
  %12 = getelementptr inbounds [1 x %struct.__va_list_tag], ptr %7, i64 0, i64 0
  call void @llvm.va_end.p0(ptr %12)
  %13 = load ptr, ptr %6, align 8, !tbaa !9
  %14 = icmp ne ptr %13, null
  br i1 %14, label %16, label %15

15:                                               ; preds = %2
  store i32 27, ptr %5, align 4, !tbaa !11
  br label %21

16:                                               ; preds = %2
  %17 = load ptr, ptr %3, align 8, !tbaa !4
  %18 = load ptr, ptr %6, align 8, !tbaa !9
  %19 = call i32 @easysrc_add(ptr noundef %17, ptr noundef %18)
  store i32 %19, ptr %5, align 4, !tbaa !11
  %20 = load ptr, ptr %6, align 8, !tbaa !9
  call void @curl_free(ptr noundef %20)
  br label %21

21:                                               ; preds = %16, %15
  %22 = load i32, ptr %5, align 4, !tbaa !11
  call void @llvm.lifetime.end.p0(i64 24, ptr %7) #5
  call void @llvm.lifetime.end.p0(i64 8, ptr %6) #5
  call void @llvm.lifetime.end.p0(i64 4, ptr %5) #5
  ret i32 %22
}