; Function Attrs: nounwind uwtable
define dso_local range(i32 0, 28) i32 @easysrc_addf(ptr noundef captures(none) %0, ptr noundef %1, ...) local_unnamed_addr #0 {
  %3 = alloca [1 x %struct.__va_list_tag], align 16
  call void @llvm.lifetime.start.p0(i64 24, ptr nonnull %3) #5
  call void @llvm.va_start.p0(ptr nonnull %3)
  %4 = call ptr @curl_mvaprintf(ptr noundef %1, ptr noundef nonnull %3) #5
  call void @llvm.va_end.p0(ptr nonnull %3)
  %.not = icmp eq ptr %4, null
  br i1 %.not, label %15, label %5

5:                                                ; preds = %2
  %6 = load ptr, ptr %0, align 8, !tbaa !4
  %7 = call ptr @slist_wc_append(ptr noundef %6, ptr noundef nonnull %4) #5
  %.not.i = icmp eq ptr %7, null
  br i1 %.not.i, label %8, label %14

8:                                                ; preds = %5
  %9 = load ptr, ptr @easysrc_decl, align 8, !tbaa !4
  call void @slist_wc_free_all(ptr noundef %9) #5
  store ptr null, ptr @easysrc_decl, align 8, !tbaa !4
  %10 = load ptr, ptr @easysrc_data, align 8, !tbaa !4
  call void @slist_wc_free_all(ptr noundef %10) #5
  store ptr null, ptr @easysrc_data, align 8, !tbaa !4
  %11 = load ptr, ptr @easysrc_code, align 8, !tbaa !4
  call void @slist_wc_free_all(ptr noundef %11) #5
  store ptr null, ptr @easysrc_code, align 8, !tbaa !4
  %12 = load ptr, ptr @easysrc_toohard, align 8, !tbaa !4
  call void @slist_wc_free_all(ptr noundef %12) #5
  store ptr null, ptr @easysrc_toohard, align 8, !tbaa !4
  %13 = load ptr, ptr @easysrc_clean, align 8, !tbaa !4
  call void @slist_wc_free_all(ptr noundef %13) #5
  store ptr null, ptr @easysrc_clean, align 8, !tbaa !4
  br label %easysrc_add.exit

14:                                               ; preds = %5
  store ptr %7, ptr %0, align 8, !tbaa !4
  br label %easysrc_add.exit

easysrc_add.exit:                                 ; preds = %8, %14
  %.0.i = phi i32 [ 0, %14 ], [ 27, %8 ]
  call void @curl_free(ptr noundef nonnull %4) #5
  br label %15

15:                                               ; preds = %2, %easysrc_add.exit
  %.0 = phi i32 [ %.0.i, %easysrc_add.exit ], [ 27, %2 ]
  call void @llvm.lifetime.end.p0(i64 24, ptr nonnull %3) #5
  ret i32 %.0
}